; Function Attrs: mustprogress nounwind uwtable
define hidden noundef zeroext i1 @_ZN14JvmtiAgentList21is_dynamic_lib_loadedEPv(ptr noundef readnone %0) local_unnamed_addr #0 align 2 {
  %2 = alloca %"class.JvmtiAgentList::Iterator", align 8
  call void @_ZN14JvmtiAgentList8IteratorC2EPP10JvmtiAgentNS0_6FilterE(ptr noundef nonnull align 8 dereferenceable(12) %2, ptr noundef nonnull @_ZN14JvmtiAgentList5_listE, i32 noundef 3)
  %3 = load ptr, ptr %2, align 8
  %4 = load i32, ptr %3, align 4
  %.not = icmp eq i32 %4, 0
  br i1 %.not, label %._crit_edge, label %.lr.ph

.lr.ph:                                           ; preds = %1
  %5 = getelementptr inbounds i8, ptr %3, i64 8
  br label %6

6:                                                ; preds = %.lr.ph, %17
  %7 = phi i32 [ %4, %.lr.ph ], [ %18, %17 ]
  %8 = load ptr, ptr %5, align 8
  %9 = add nsw i32 %7, -1
  store i32 %9, ptr %3, align 8
  %10 = sext i32 %9 to i64
  %11 = getelementptr inbounds ptr, ptr %8, i64 %10
  %12 = load ptr, ptr %11, align 8
  %13 = tail call noundef zeroext i1 @_ZNK10JvmtiAgent13is_static_libEv(ptr noundef nonnull align 8 dereferenceable(86) %12) #9
  br i1 %13, label %17, label %14

14:                                               ; preds = %6
  %15 = tail call noundef ptr @_ZNK10JvmtiAgent6os_libEv(ptr noundef nonnull align 8 dereferenceable(86) %12) #9
  %16 = icmp eq ptr %15, %0
  br i1 %16, label %._crit_edge, label %17

17:                                               ; preds = %14, %6
  %18 = load i32, ptr %3, align 4
  %.not9 = icmp eq i32 %18, 0
  br i1 %.not9, label %._crit_edge, label %6, !llvm.loop !17

._crit_edge:                                      ; preds = %17, %14, %1
  %.lcssa = phi i1 [ false, %1 ], [ true, %14 ], [ false, %17 ]
  store i32 0, ptr %3, align 4
  %19 = getelementptr inbounds i8, ptr %3, i64 4
  %20 = load i32, ptr %19, align 4
  %21 = icmp eq i32 %20, 0
  br i1 %21, label %_ZN14JvmtiAgentList8IteratorD2Ev.exit, label %.loopexit.i.i.i.i

.loopexit.i.i.i.i:                                ; preds = %._crit_edge
  %22 = getelementptr inbounds i8, ptr %3, i64 8
  %23 = load ptr, ptr %22, align 8
  store i32 0, ptr %19, align 4
  %.not.i.i.i.i = icmp eq ptr %23, null
  br i1 %.not.i.i.i.i, label %24, label %.loopexit.thread.i.i.i.i

.loopexit.thread.i.i.i.i:                         ; preds = %.loopexit.i.i.i.i
  tail call void @_ZN27GrowableArrayCHeapAllocator10deallocateEPv(ptr noundef nonnull %23) #9
  br label %24

24:                                               ; preds = %.loopexit.thread.i.i.i.i, %.loopexit.i.i.i.i
  store ptr null, ptr %22, align 8
  br label %_ZN14JvmtiAgentList8IteratorD2Ev.exit

_ZN14JvmtiAgentList8IteratorD2Ev.exit:            ; preds = %._crit_edge, %24
  tail call void @_ZN6AnyObjdlEPv(ptr noundef nonnull %3) #9
  ret i1 %.lcssa
}